; Function Attrs: nofree norecurse nosync nounwind memory(read, inaccessiblemem: none) uwtable
define range(i32 0, 2) i32 @Wlc_PrsCheckBitConst0(ptr noundef readonly captures(none) %0, i32 noundef %1) local_unnamed_addr #7 {
  %3 = getelementptr i8, ptr %0, i64 640
  %.val12 = load ptr, ptr %3, align 8
  %4 = sext i32 %1 to i64
  %5 = getelementptr inbounds %struct.Wlc_Obj_t_, ptr %.val12, i64 %4
  %6 = getelementptr i8, ptr %5, i64 8
  %.val13 = load i32, ptr %6, align 8
  %7 = getelementptr i8, ptr %5, i64 12
  %.val14 = load i32, ptr %7, align 4
  %.not = icmp eq i32 %.val13, %.val14
  br i1 %.not, label %.preheader, label %.loopexit

.preheader:                                       ; preds = %2, %Wlc_ObjFaninId0.exit
  %.09 = phi ptr [ %19, %Wlc_ObjFaninId0.exit ], [ %5, %2 ]
  %8 = load i16, ptr %.09, align 8
  %9 = and i16 %8, 63
  switch i16 %9, label %.loopexit [
    i16 7, label %10
    i16 6, label %Wlc_ObjConstValue.exit
  ]

10:                                               ; preds = %.preheader
  %11 = getelementptr inbounds nuw i8, ptr %.09, i64 4
  %12 = load i32, ptr %11, align 4
  %13 = icmp ugt i32 %12, 2
  %14 = getelementptr inbounds nuw i8, ptr %.09, i64 16
  br i1 %13, label %Wlc_ObjHasArray.exit.thread.i.i, label %Wlc_ObjFaninId0.exit

Wlc_ObjHasArray.exit.thread.i.i:                  ; preds = %10
  %15 = load ptr, ptr %14, align 8
  br label %Wlc_ObjFaninId0.exit

Wlc_ObjFaninId0.exit:                             ; preds = %10, %Wlc_ObjHasArray.exit.thread.i.i
  %16 = phi ptr [ %15, %Wlc_ObjHasArray.exit.thread.i.i ], [ %14, %10 ]
  %17 = load i32, ptr %16, align 4
  %18 = sext i32 %17 to i64
  %19 = getelementptr inbounds %struct.Wlc_Obj_t_, ptr %.val12, i64 %18
  br label %.preheader, !llvm.loop !22

Wlc_ObjConstValue.exit:                           ; preds = %.preheader
  %20 = getelementptr inbounds nuw i8, ptr %.09, i64 16
  %21 = load ptr, ptr %20, align 8
  %22 = load i32, ptr %21, align 4
  %23 = and i32 %22, 1
  %24 = xor i32 %23, 1
  br label %.loopexit

.loopexit:                                        ; preds = %.preheader, %2, %Wlc_ObjConstValue.exit
  %.0 = phi i32 [ %24, %Wlc_ObjConstValue.exit ], [ 0, %2 ], [ 0, %.preheader ]
  ret i32 %.0
}